target datalayout = "e-m:e-p270:32:32-p271:32:32-p272:64:64-i64:64-i128:128-f80:128-n8:16:32:64-S128"
target triple = "x86_64-pc-linux-gnu"

%"struct.std::_Vector_base.1" = type { %"struct.std::_Vector_base<Ipopt::SmartPtr<const Ipopt::Vector>, std::allocator<Ipopt::SmartPtr<const Ipopt::Vector>>>::_Vector_impl" }
%"struct.std::_Vector_base<Ipopt::SmartPtr<const Ipopt::Vector>, std::allocator<Ipopt::SmartPtr<const Ipopt::Vector>>>::_Vector_impl" = type { %"struct.std::_Vector_base<Ipopt::SmartPtr<const Ipopt::Vector>, std::allocator<Ipopt::SmartPtr<const Ipopt::Vector>>>::_Vector_impl_data" }
%"struct.std::_Vector_base<Ipopt::SmartPtr<const Ipopt::Vector>, std::allocator<Ipopt::SmartPtr<const Ipopt::Vector>>>::_Vector_impl_data" = type { ptr, ptr, ptr }
%"class.Ipopt::ReferencedObject.base" = type <{ ptr, i32 }>
%"class.Ipopt::CachedResults.13" = type { ptr, i32, ptr }
%"class.Ipopt::Vector" = type <{ %"class.Ipopt::TaggedObject", %"class.Ipopt::SmartPtr.43", %"class.Ipopt::CachedResults.13", i32, [4 x i8], double, i32, [4 x i8], double, i32, [4 x i8], double, i32, [4 x i8], double, i32, [4 x i8], double, i32, [4 x i8], double, i32, [4 x i8], double, i32, i8, [3 x i8] }>
%"class.Ipopt::TaggedObject" = type { %"class.Ipopt::ReferencedObject.base", %"class.Ipopt::Subject", i32, i32 }
%"class.Ipopt::Subject" = type { ptr, %"class.std::vector" }
%"class.std::vector" = type { %"struct.std::_Vector_base" }
%"struct.std::_Vector_base" = type { %"struct.std::_Vector_base<Ipopt::Observer *, std::allocator<Ipopt::Observer *>>::_Vector_impl" }
%"struct.std::_Vector_base<Ipopt::Observer *, std::allocator<Ipopt::Observer *>>::_Vector_impl" = type { %"struct.std::_Vector_base<Ipopt::Observer *, std::allocator<Ipopt::Observer *>>::_Vector_impl_data" }
%"struct.std::_Vector_base<Ipopt::Observer *, std::allocator<Ipopt::Observer *>>::_Vector_impl_data" = type { ptr, ptr, ptr }
%"class.Ipopt::SmartPtr.43" = type { ptr }
%"class.Ipopt::SmartPtr.44" = type { ptr }

; Function Attrs: inlinehint mustprogress nounwind uwtable
define linkonce_odr noundef nonnull align 8 dereferenceable(8) ptr @_ZSt3maxIdERKT_S2_S2_(ptr noundef nonnull align 8 dereferenceable(8) %0, ptr noundef nonnull align 8 dereferenceable(8) %1) #11 comdat {
  %3 = alloca ptr, align 8
  %4 = alloca ptr, align 8
  %5 = alloca ptr, align 8
  store ptr %0, ptr %4, align 8, !tbaa !202
  store ptr %1, ptr %5, align 8, !tbaa !202
  %6 = load ptr, ptr %4, align 8, !tbaa !202
  %7 = load double, ptr %6, align 8, !tbaa !154
  %8 = load ptr, ptr %5, align 8, !tbaa !202
  %9 = load double, ptr %8, align 8, !tbaa !154
  %10 = fcmp olt double %7, %9
  br i1 %10, label %11, label %13

11:                                               ; preds = %2
  %12 = load ptr, ptr %5, align 8, !tbaa !202
  store ptr %12, ptr %3, align 8
  br label %15

13:                                               ; preds = %2
  %14 = load ptr, ptr %4, align 8, !tbaa !202
  store ptr %14, ptr %3, align 8
  br label %15

15:                                               ; preds = %13, %11
  %16 = load ptr, ptr %3, align 8
  ret ptr %16
}

; Function Attrs: mustprogress nounwind uwtable
define linkonce_odr noundef i32 @_ZNK5Ipopt12TaggedObject6GetTagEv(ptr noundef nonnull align 8 dereferenceable(56) %0) #4 comdat align 2 {
  %2 = alloca ptr, align 8
  store ptr %0, ptr %2, align 8, !tbaa !162
  %3 = load ptr, ptr %2, align 8
  %4 = getelementptr inbounds nuw %"class.Ipopt::TaggedObject", ptr %3, i32 0, i32 2
  %5 = load i32, ptr %4, align 8, !tbaa !281
  ret i32 %5
}

; Function Attrs: inlinehint mustprogress uwtable
define linkonce_odr noundef double @_ZN5Ipopt3MaxIdEET_S1_S1_(double noundef %0, double noundef %1) #8 comdat {
  %3 = alloca double, align 8
  %4 = alloca double, align 8
  store double %0, ptr %3, align 8, !tbaa !154
  store double %1, ptr %4, align 8, !tbaa !154
  %5 = call noundef nonnull align 8 dereferenceable(8) ptr @_ZSt3maxIdERKT_S2_S2_(ptr noundef nonnull align 8 dereferenceable(8) %3, ptr noundef nonnull align 8 dereferenceable(8) %4)
  %6 = load double, ptr %5, align 8, !tbaa !154
  ret double %6
}

; Function Attrs: inlinehint mustprogress uwtable
define linkonce_odr noundef double @_ZNK5Ipopt6Vector4AmaxEv(ptr noundef nonnull align 8 dereferenceable(205) %0) #8 comdat align 2 {
  %2 = alloca ptr, align 8
  store ptr %0, ptr %2, align 8, !tbaa !86
  %3 = load ptr, ptr %2, align 8
  %4 = getelementptr inbounds nuw %"class.Ipopt::Vector", ptr %3, i32 0, i32 9
  %5 = load i32, ptr %4, align 8, !tbaa !144
  %6 = call noundef i32 @_ZNK5Ipopt12TaggedObject6GetTagEv(ptr noundef nonnull align 8 dereferenceable(56) %3)
  %7 = icmp ne i32 %5, %6
  br i1 %7, label %8, label %16

8:                                                ; preds = %1
  %9 = load ptr, ptr %3, align 8, !tbaa !18
  %10 = getelementptr inbounds ptr, ptr %9, i64 8
  %11 = load ptr, ptr %10, align 8
  %12 = call noundef double %11(ptr noundef nonnull align 8 dereferenceable(205) %3)
  %13 = getelementptr inbounds nuw %"class.Ipopt::Vector", ptr %3, i32 0, i32 11
  store double %12, ptr %13, align 8, !tbaa !145
  %14 = call noundef i32 @_ZNK5Ipopt12TaggedObject6GetTagEv(ptr noundef nonnull align 8 dereferenceable(56) %3)
  %15 = getelementptr inbounds nuw %"class.Ipopt::Vector", ptr %3, i32 0, i32 9
  store i32 %14, ptr %15, align 8, !tbaa !144
  br label %16

16:                                               ; preds = %8, %1
  %17 = getelementptr inbounds nuw %"class.Ipopt::Vector", ptr %3, i32 0, i32 11
  %18 = load double, ptr %17, align 8, !tbaa !145
  ret double %18
}

; Function Attrs: inlinehint mustprogress uwtable
define linkonce_odr noundef double @_ZNK5Ipopt6Vector4Nrm2Ev(ptr noundef nonnull align 8 dereferenceable(205) %0) #8 comdat align 2 {
  %2 = alloca ptr, align 8
  store ptr %0, ptr %2, align 8, !tbaa !86
  %3 = load ptr, ptr %2, align 8
  %4 = getelementptr inbounds nuw %"class.Ipopt::Vector", ptr %3, i32 0, i32 3
  %5 = load i32, ptr %4, align 8, !tbaa !129
  %6 = call noundef i32 @_ZNK5Ipopt12TaggedObject6GetTagEv(ptr noundef nonnull align 8 dereferenceable(56) %3)
  %7 = icmp ne i32 %5, %6
  br i1 %7, label %8, label %16

8:                                                ; preds = %1
  %9 = load ptr, ptr %3, align 8, !tbaa !18
  %10 = getelementptr inbounds ptr, ptr %9, i64 6
  %11 = load ptr, ptr %10, align 8
  %12 = call noundef double %11(ptr noundef nonnull align 8 dereferenceable(205) %3)
  %13 = getelementptr inbounds nuw %"class.Ipopt::Vector", ptr %3, i32 0, i32 5
  store double %12, ptr %13, align 8, !tbaa !141
  %14 = call noundef i32 @_ZNK5Ipopt12TaggedObject6GetTagEv(ptr noundef nonnull align 8 dereferenceable(56) %3)
  %15 = getelementptr inbounds nuw %"class.Ipopt::Vector", ptr %3, i32 0, i32 3
  store i32 %14, ptr %15, align 8, !tbaa !129
  br label %16

16:                                               ; preds = %8, %1
  %17 = getelementptr inbounds nuw %"class.Ipopt::Vector", ptr %3, i32 0, i32 5
  %18 = load double, ptr %17, align 8, !tbaa !141
  ret double %18
}

; Function Attrs: inlinehint mustprogress uwtable
define linkonce_odr noundef double @_ZNK5Ipopt6Vector4AsumEv(ptr noundef nonnull align 8 dereferenceable(205) %0) #8 comdat align 2 {
  %2 = alloca ptr, align 8
  store ptr %0, ptr %2, align 8, !tbaa !86
  %3 = load ptr, ptr %2, align 8
  %4 = getelementptr inbounds nuw %"class.Ipopt::Vector", ptr %3, i32 0, i32 6
  %5 = load i32, ptr %4, align 8, !tbaa !142
  %6 = call noundef i32 @_ZNK5Ipopt12TaggedObject6GetTagEv(ptr noundef nonnull align 8 dereferenceable(56) %3)
  %7 = icmp ne i32 %5, %6
  br i1 %7, label %8, label %16

8:                                                ; preds = %1
  %9 = load ptr, ptr %3, align 8, !tbaa !18
  %10 = getelementptr inbounds ptr, ptr %9, i64 7
  %11 = load ptr, ptr %10, align 8
  %12 = call noundef double %11(ptr noundef nonnull align 8 dereferenceable(205) %3)
  %13 = getelementptr inbounds nuw %"class.Ipopt::Vector", ptr %3, i32 0, i32 8
  store double %12, ptr %13, align 8, !tbaa !143
  %14 = call noundef i32 @_ZNK5Ipopt12TaggedObject6GetTagEv(ptr noundef nonnull align 8 dereferenceable(56) %3)
  %15 = getelementptr inbounds nuw %"class.Ipopt::Vector", ptr %3, i32 0, i32 6
  store i32 %14, ptr %15, align 8, !tbaa !142
  br label %16

16:                                               ; preds = %8, %1
  %17 = getelementptr inbounds nuw %"class.Ipopt::Vector", ptr %3, i32 0, i32 8
  %18 = load double, ptr %17, align 8, !tbaa !143
  ret double %18
}

; Function Attrs: mustprogress nounwind uwtable
define linkonce_odr noundef ptr @_ZNK5Ipopt8SmartPtrIKNS_6VectorEEptEv(ptr noundef nonnull align 8 dereferenceable(8) %0) #4 comdat align 2 {
  %2 = alloca ptr, align 8
  store ptr %0, ptr %2, align 8, !tbaa !164
  %3 = load ptr, ptr %2, align 8
  %4 = getelementptr inbounds nuw %"class.Ipopt::SmartPtr.44", ptr %3, i32 0, i32 0
  %5 = load ptr, ptr %4, align 8, !tbaa !165
  ret ptr %5
}

; Function Attrs: mustprogress nounwind uwtable
define linkonce_odr noundef nonnull align 8 dereferenceable(8) ptr @_ZNSt6vectorIN5Ipopt8SmartPtrIKNS0_6VectorEEESaIS4_EEixEm(ptr noundef nonnull align 8 dereferenceable(24) %0, i64 noundef %1) #4 comdat align 2 {
  %3 = alloca ptr, align 8
  %4 = alloca i64, align 8
  store ptr %0, ptr %3, align 8, !tbaa !3
  store i64 %1, ptr %4, align 8, !tbaa !189
  %5 = load ptr, ptr %3, align 8
  %6 = getelementptr inbounds nuw %"struct.std::_Vector_base.1", ptr %5, i32 0, i32 0
  %7 = getelementptr inbounds nuw %"struct.std::_Vector_base<Ipopt::SmartPtr<const Ipopt::Vector>, std::allocator<Ipopt::SmartPtr<const Ipopt::Vector>>>::_Vector_impl_data", ptr %6, i32 0, i32 0
  %8 = load ptr, ptr %7, align 8, !tbaa !8
  %9 = load i64, ptr %4, align 8, !tbaa !189
  %10 = getelementptr inbounds nuw %"class.Ipopt::SmartPtr.44", ptr %8, i64 %9
  ret ptr %10
}

; Function Attrs: mustprogress nounwind uwtable
define linkonce_odr noundef i64 @_ZNKSt6vectorIN5Ipopt8SmartPtrIKNS0_6VectorEEESaIS4_EE4sizeEv(ptr noundef nonnull align 8 dereferenceable(24) %0) #4 comdat align 2 {
  %2 = alloca ptr, align 8
  store ptr %0, ptr %2, align 8, !tbaa !3
  %3 = load ptr, ptr %2, align 8
  %4 = getelementptr inbounds nuw %"struct.std::_Vector_base.1", ptr %3, i32 0, i32 0
  %5 = getelementptr inbounds nuw %"struct.std::_Vector_base<Ipopt::SmartPtr<const Ipopt::Vector>, std::allocator<Ipopt::SmartPtr<const Ipopt::Vector>>>::_Vector_impl_data", ptr %4, i32 0, i32 1
  %6 = load ptr, ptr %5, align 8, !tbaa !11
  %7 = getelementptr inbounds nuw %"struct.std::_Vector_base.1", ptr %3, i32 0, i32 0
  %8 = getelementptr inbounds nuw %"struct.std::_Vector_base<Ipopt::SmartPtr<const Ipopt::Vector>, std::allocator<Ipopt::SmartPtr<const Ipopt::Vector>>>::_Vector_impl_data", ptr %7, i32 0, i32 0
  %9 = load ptr, ptr %8, align 8, !tbaa !8
  %10 = ptrtoint ptr %6 to i64
  %11 = ptrtoint ptr %9 to i64
  %12 = sub i64 %10, %11
  %13 = sdiv exact i64 %12, 8
  ret i64 %13
}

; Function Attrs: mustprogress uwtable
define noundef double @_ZN5Ipopt25IpoptCalculatedQuantities14CalcNormOfTypeENS_9ENormTypeESt6vectorINS_8SmartPtrIKNS_6VectorEEESaIS6_EE(ptr noundef nonnull align 8 dereferenceable(2185) %0, i32 noundef %1, ptr noundef %2) #6 align 2 {
  %4 = alloca ptr, align 8
  %5 = alloca i32, align 4
  %6 = alloca ptr, align 8
  %7 = alloca double, align 8
  %8 = alloca i32, align 4
  %9 = alloca i32, align 4
  %10 = alloca double, align 8
  %11 = alloca i32, align 4
  store ptr %0, ptr %4, align 8, !tbaa !12
  store i32 %1, ptr %5, align 4, !tbaa !214
  store ptr %2, ptr %6, align 8, !tbaa !3
  call void @llvm.lifetime.start.p0(i64 8, ptr %7) #3
  store double 0.000000e+00, ptr %7, align 8, !tbaa !154
  %12 = load i32, ptr %5, align 4, !tbaa !214
  switch i32 %12, label %74 [
    i32 0, label %13
    i32 1, label %32
    i32 2, label %55
  ]

13:                                               ; preds = %3
  call void @llvm.lifetime.start.p0(i64 4, ptr %8) #3
  store i32 0, ptr %8, align 4, !tbaa !61
  br label %14

14:                                               ; preds = %28, %13
  %15 = load i32, ptr %8, align 4, !tbaa !61
  %16 = call noundef i64 @_ZNKSt6vectorIN5Ipopt8SmartPtrIKNS0_6VectorEEESaIS4_EE4sizeEv(ptr noundef nonnull align 8 dereferenceable(24) %2) #3
  %17 = trunc i64 %16 to i32
  %18 = icmp slt i32 %15, %17
  br i1 %18, label %20, label %19

19:                                               ; preds = %14
  call void @llvm.lifetime.end.p0(i64 4, ptr %8) #3
  br label %31

20:                                               ; preds = %14
  %21 = load i32, ptr %8, align 4, !tbaa !61
  %22 = sext i32 %21 to i64
  %23 = call noundef nonnull align 8 dereferenceable(8) ptr @_ZNSt6vectorIN5Ipopt8SmartPtrIKNS0_6VectorEEESaIS4_EEixEm(ptr noundef nonnull align 8 dereferenceable(24) %2, i64 noundef %22) #3
  %24 = call noundef ptr @_ZNK5Ipopt8SmartPtrIKNS_6VectorEEptEv(ptr noundef nonnull align 8 dereferenceable(8) %23)
  %25 = call noundef double @_ZNK5Ipopt6Vector4AsumEv(ptr noundef nonnull align 8 dereferenceable(205) %24)
  %26 = load double, ptr %7, align 8, !tbaa !154
  %27 = fadd double %26, %25
  store double %27, ptr %7, align 8, !tbaa !154
  br label %28

28:                                               ; preds = %20
  %29 = load i32, ptr %8, align 4, !tbaa !61
  %30 = add nsw i32 %29, 1
  store i32 %30, ptr %8, align 4, !tbaa !61
  br label %14, !llvm.loop !219

31:                                               ; preds = %19
  br label %75

32:                                               ; preds = %3
  call void @llvm.lifetime.start.p0(i64 4, ptr %9) #3
  store i32 0, ptr %9, align 4, !tbaa !61
  br label %33

33:                                               ; preds = %49, %32
  %34 = load i32, ptr %9, align 4, !tbaa !61
  %35 = call noundef i64 @_ZNKSt6vectorIN5Ipopt8SmartPtrIKNS0_6VectorEEESaIS4_EE4sizeEv(ptr noundef nonnull align 8 dereferenceable(24) %2) #3
  %36 = trunc i64 %35 to i32
  %37 = icmp slt i32 %34, %36
  br i1 %37, label %39, label %38

38:                                               ; preds = %33
  call void @llvm.lifetime.end.p0(i64 4, ptr %9) #3
  br label %52

39:                                               ; preds = %33
  call void @llvm.lifetime.start.p0(i64 8, ptr %10) #3
  %40 = load i32, ptr %9, align 4, !tbaa !61
  %41 = sext i32 %40 to i64
  %42 = call noundef nonnull align 8 dereferenceable(8) ptr @_ZNSt6vectorIN5Ipopt8SmartPtrIKNS0_6VectorEEESaIS4_EEixEm(ptr noundef nonnull align 8 dereferenceable(24) %2, i64 noundef %41) #3
  %43 = call noundef ptr @_ZNK5Ipopt8SmartPtrIKNS_6VectorEEptEv(ptr noundef nonnull align 8 dereferenceable(8) %42)
  %44 = call noundef double @_ZNK5Ipopt6Vector4Nrm2Ev(ptr noundef nonnull align 8 dereferenceable(205) %43)
  store double %44, ptr %10, align 8, !tbaa !154
  %45 = load double, ptr %10, align 8, !tbaa !154
  %46 = load double, ptr %10, align 8, !tbaa !154
  %47 = load double, ptr %7, align 8, !tbaa !154
  %48 = call double @llvm.fmuladd.f64(double %45, double %46, double %47)
  store double %48, ptr %7, align 8, !tbaa !154
  call void @llvm.lifetime.end.p0(i64 8, ptr %10) #3
  br label %49

49:                                               ; preds = %39
  %50 = load i32, ptr %9, align 4, !tbaa !61
  %51 = add nsw i32 %50, 1
  store i32 %51, ptr %9, align 4, !tbaa !61
  br label %33, !llvm.loop !220

52:                                               ; preds = %38
  %53 = load double, ptr %7, align 8, !tbaa !154
  %54 = call double @sqrt(double noundef %53) #3, !tbaa !61
  store double %54, ptr %7, align 8, !tbaa !154
  br label %75

55:                                               ; preds = %3
  call void @llvm.lifetime.start.p0(i64 4, ptr %11) #3
  store i32 0, ptr %11, align 4, !tbaa !61
  br label %56

56:                                               ; preds = %70, %55
  %57 = load i32, ptr %11, align 4, !tbaa !61
  %58 = call noundef i64 @_ZNKSt6vectorIN5Ipopt8SmartPtrIKNS0_6VectorEEESaIS4_EE4sizeEv(ptr noundef nonnull align 8 dereferenceable(24) %2) #3
  %59 = trunc i64 %58 to i32
  %60 = icmp slt i32 %57, %59
  br i1 %60, label %62, label %61

61:                                               ; preds = %56
  call void @llvm.lifetime.end.p0(i64 4, ptr %11) #3
  br label %73

62:                                               ; preds = %56
  %63 = load double, ptr %7, align 8, !tbaa !154
  %64 = load i32, ptr %11, align 4, !tbaa !61
  %65 = sext i32 %64 to i64
  %66 = call noundef nonnull align 8 dereferenceable(8) ptr @_ZNSt6vectorIN5Ipopt8SmartPtrIKNS0_6VectorEEESaIS4_EEixEm(ptr noundef nonnull align 8 dereferenceable(24) %2, i64 noundef %65) #3
  %67 = call noundef ptr @_ZNK5Ipopt8SmartPtrIKNS_6VectorEEptEv(ptr noundef nonnull align 8 dereferenceable(8) %66)
  %68 = call noundef double @_ZNK5Ipopt6Vector4AmaxEv(ptr noundef nonnull align 8 dereferenceable(205) %67)
  %69 = call noundef double @_ZN5Ipopt3MaxIdEET_S1_S1_(double noundef %63, double noundef %68)
  store double %69, ptr %7, align 8, !tbaa !154
  br label %70

70:                                               ; preds = %62
  %71 = load i32, ptr %11, align 4, !tbaa !61
  %72 = add nsw i32 %71, 1
  store i32 %72, ptr %11, align 4, !tbaa !61
  br label %56, !llvm.loop !221

73:                                               ; preds = %61
  br label %75

74:                                               ; preds = %3
  br label %75

75:                                               ; preds = %74, %73, %52, %31
  %76 = load double, ptr %7, align 8, !tbaa !154
  call void @llvm.lifetime.end.p0(i64 8, ptr %7) #3
  ret double %76
}