; Function Attrs: mustprogress uwtable
define noundef double @_ZN5Ipopt25IpoptCalculatedQuantities14CalcNormOfTypeENS_9ENormTypeESt6vectorINS_8SmartPtrIKNS_6VectorEEESaIS6_EE(ptr nonnull readnone align 8 captures(none) %0, i32 noundef %1, ptr noundef readonly captures(none) %2) local_unnamed_addr #6 align 2 {
  switch i32 %1, label %.loopexit [
    i32 0, label %.preheader
    i32 1, label %.preheader27
    i32 2, label %.preheader28
  ]

.preheader28:                                     ; preds = %3
  %4 = getelementptr inbounds nuw i8, ptr %2, i64 8
  %5 = load ptr, ptr %4, align 8, !tbaa !9
  %6 = load ptr, ptr %2, align 8, !tbaa !3
  %7 = ptrtoint ptr %5 to i64
  %8 = ptrtoint ptr %6 to i64
  %9 = sub i64 %7, %8
  %10 = lshr exact i64 %9, 3
  %11 = trunc i64 %10 to i32
  %12 = icmp sgt i32 %11, 0
  br i1 %12, label %.lr.ph, label %.loopexit

.preheader27:                                     ; preds = %3
  %13 = getelementptr inbounds nuw i8, ptr %2, i64 8
  %14 = load ptr, ptr %13, align 8, !tbaa !9
  %15 = load ptr, ptr %2, align 8, !tbaa !3
  %16 = ptrtoint ptr %14 to i64
  %17 = ptrtoint ptr %15 to i64
  %18 = sub i64 %16, %17
  %19 = lshr exact i64 %18, 3
  %20 = trunc i64 %19 to i32
  %21 = icmp sgt i32 %20, 0
  br i1 %21, label %.lr.ph34, label %._crit_edge

.preheader:                                       ; preds = %3
  %22 = getelementptr inbounds nuw i8, ptr %2, i64 8
  %23 = load ptr, ptr %22, align 8, !tbaa !9
  %24 = load ptr, ptr %2, align 8, !tbaa !3
  %25 = ptrtoint ptr %23 to i64
  %26 = ptrtoint ptr %24 to i64
  %27 = sub i64 %25, %26
  %28 = lshr exact i64 %27, 3
  %29 = trunc i64 %28 to i32
  %30 = icmp sgt i32 %29, 0
  br i1 %30, label %.lr.ph38, label %.loopexit

.lr.ph38:                                         ; preds = %.preheader, %_ZNK5Ipopt6Vector4AsumEv.exit
  %31 = phi ptr [ %46, %_ZNK5Ipopt6Vector4AsumEv.exit ], [ %24, %.preheader ]
  %32 = phi ptr [ %47, %_ZNK5Ipopt6Vector4AsumEv.exit ], [ %23, %.preheader ]
  %indvars.iv46 = phi i64 [ %indvars.iv.next47, %_ZNK5Ipopt6Vector4AsumEv.exit ], [ 0, %.preheader ]
  %.01637 = phi double [ %49, %_ZNK5Ipopt6Vector4AsumEv.exit ], [ 0.000000e+00, %.preheader ]
  %33 = getelementptr inbounds nuw %"class.Ipopt::SmartPtr.44", ptr %31, i64 %indvars.iv46
  %34 = load ptr, ptr %33, align 8, !tbaa !10
  %35 = getelementptr inbounds nuw i8, ptr %34, i64 104
  %36 = load i32, ptr %35, align 8, !tbaa !120
  %37 = getelementptr inbounds nuw i8, ptr %34, i64 48
  %38 = load i32, ptr %37, align 8, !tbaa !108
  %.not.i = icmp eq i32 %36, %38
  br i1 %.not.i, label %._crit_edge.i, label %39

._crit_edge.i:                                    ; preds = %.lr.ph38
  %.phi.trans.insert.i = getelementptr inbounds nuw i8, ptr %34, i64 112
  %.pre.i = load double, ptr %.phi.trans.insert.i, align 8, !tbaa !121
  br label %_ZNK5Ipopt6Vector4AsumEv.exit

39:                                               ; preds = %.lr.ph38
  %40 = load ptr, ptr %34, align 8, !tbaa !16
  %41 = getelementptr inbounds nuw i8, ptr %40, i64 56
  %42 = load ptr, ptr %41, align 8
  %43 = tail call noundef double %42(ptr noundef nonnull align 8 dereferenceable(205) %34)
  %44 = getelementptr inbounds nuw i8, ptr %34, i64 112
  store double %43, ptr %44, align 8, !tbaa !121
  %45 = load i32, ptr %37, align 8, !tbaa !108
  store i32 %45, ptr %35, align 8, !tbaa !120
  %.pre52 = load ptr, ptr %22, align 8, !tbaa !9
  %.pre53 = load ptr, ptr %2, align 8, !tbaa !3
  br label %_ZNK5Ipopt6Vector4AsumEv.exit

_ZNK5Ipopt6Vector4AsumEv.exit:                    ; preds = %._crit_edge.i, %39
  %46 = phi ptr [ %31, %._crit_edge.i ], [ %.pre53, %39 ]
  %47 = phi ptr [ %32, %._crit_edge.i ], [ %.pre52, %39 ]
  %48 = phi double [ %.pre.i, %._crit_edge.i ], [ %43, %39 ]
  %49 = fadd double %.01637, %48
  %indvars.iv.next47 = add nuw nsw i64 %indvars.iv46, 1
  %50 = ptrtoint ptr %47 to i64
  %51 = ptrtoint ptr %46 to i64
  %52 = sub i64 %50, %51
  %sext55 = shl i64 %52, 29
  %53 = ashr i64 %sext55, 32
  %54 = icmp slt i64 %indvars.iv.next47, %53
  br i1 %54, label %.lr.ph38, label %.loopexit, !llvm.loop !921

._crit_edge:                                      ; preds = %_ZNK5Ipopt6Vector4Nrm2Ev.exit, %.preheader27
  %.2.lcssa = phi double [ 0.000000e+00, %.preheader27 ], [ %74, %_ZNK5Ipopt6Vector4Nrm2Ev.exit ]
  %55 = tail call double @sqrt(double noundef %.2.lcssa) #26, !tbaa !95
  br label %.loopexit

.lr.ph34:                                         ; preds = %.preheader27, %_ZNK5Ipopt6Vector4Nrm2Ev.exit
  %56 = phi ptr [ %71, %_ZNK5Ipopt6Vector4Nrm2Ev.exit ], [ %15, %.preheader27 ]
  %57 = phi ptr [ %72, %_ZNK5Ipopt6Vector4Nrm2Ev.exit ], [ %14, %.preheader27 ]
  %indvars.iv43 = phi i64 [ %indvars.iv.next44, %_ZNK5Ipopt6Vector4Nrm2Ev.exit ], [ 0, %.preheader27 ]
  %.233 = phi double [ %74, %_ZNK5Ipopt6Vector4Nrm2Ev.exit ], [ 0.000000e+00, %.preheader27 ]
  %58 = getelementptr inbounds nuw %"class.Ipopt::SmartPtr.44", ptr %56, i64 %indvars.iv43
  %59 = load ptr, ptr %58, align 8, !tbaa !10
  %60 = getelementptr inbounds nuw i8, ptr %59, i64 88
  %61 = load i32, ptr %60, align 8, !tbaa !117
  %62 = getelementptr inbounds nuw i8, ptr %59, i64 48
  %63 = load i32, ptr %62, align 8, !tbaa !108
  %.not.i19 = icmp eq i32 %61, %63
  br i1 %.not.i19, label %._crit_edge.i20, label %64

._crit_edge.i20:                                  ; preds = %.lr.ph34
  %.phi.trans.insert.i21 = getelementptr inbounds nuw i8, ptr %59, i64 96
  %.pre.i22 = load double, ptr %.phi.trans.insert.i21, align 8, !tbaa !119
  br label %_ZNK5Ipopt6Vector4Nrm2Ev.exit

64:                                               ; preds = %.lr.ph34
  %65 = load ptr, ptr %59, align 8, !tbaa !16
  %66 = getelementptr inbounds nuw i8, ptr %65, i64 48
  %67 = load ptr, ptr %66, align 8
  %68 = tail call noundef double %67(ptr noundef nonnull align 8 dereferenceable(205) %59)
  %69 = getelementptr inbounds nuw i8, ptr %59, i64 96
  store double %68, ptr %69, align 8, !tbaa !119
  %70 = load i32, ptr %62, align 8, !tbaa !108
  store i32 %70, ptr %60, align 8, !tbaa !117
  %.pre50 = load ptr, ptr %13, align 8, !tbaa !9
  %.pre51 = load ptr, ptr %2, align 8, !tbaa !3
  br label %_ZNK5Ipopt6Vector4Nrm2Ev.exit

_ZNK5Ipopt6Vector4Nrm2Ev.exit:                    ; preds = %._crit_edge.i20, %64
  %71 = phi ptr [ %56, %._crit_edge.i20 ], [ %.pre51, %64 ]
  %72 = phi ptr [ %57, %._crit_edge.i20 ], [ %.pre50, %64 ]
  %73 = phi double [ %.pre.i22, %._crit_edge.i20 ], [ %68, %64 ]
  %74 = tail call double @llvm.fmuladd.f64(double %73, double %73, double %.233)
  %indvars.iv.next44 = add nuw nsw i64 %indvars.iv43, 1
  %75 = ptrtoint ptr %72 to i64
  %76 = ptrtoint ptr %71 to i64
  %77 = sub i64 %75, %76
  %sext54 = shl i64 %77, 29
  %78 = ashr i64 %sext54, 32
  %79 = icmp slt i64 %indvars.iv.next44, %78
  br i1 %79, label %.lr.ph34, label %._crit_edge, !llvm.loop !922

.lr.ph:                                           ; preds = %.preheader28, %_ZNK5Ipopt6Vector4AmaxEv.exit
  %80 = phi ptr [ %95, %_ZNK5Ipopt6Vector4AmaxEv.exit ], [ %6, %.preheader28 ]
  %81 = phi ptr [ %96, %_ZNK5Ipopt6Vector4AmaxEv.exit ], [ %5, %.preheader28 ]
  %indvars.iv = phi i64 [ %indvars.iv.next, %_ZNK5Ipopt6Vector4AmaxEv.exit ], [ 0, %.preheader28 ]
  %.330 = phi double [ %.sroa.speculated.i, %_ZNK5Ipopt6Vector4AmaxEv.exit ], [ 0.000000e+00, %.preheader28 ]
  %82 = getelementptr inbounds nuw %"class.Ipopt::SmartPtr.44", ptr %80, i64 %indvars.iv
  %83 = load ptr, ptr %82, align 8, !tbaa !10
  %84 = getelementptr inbounds nuw i8, ptr %83, i64 120
  %85 = load i32, ptr %84, align 8, !tbaa !122
  %86 = getelementptr inbounds nuw i8, ptr %83, i64 48
  %87 = load i32, ptr %86, align 8, !tbaa !108
  %.not.i23 = icmp eq i32 %85, %87
  br i1 %.not.i23, label %._crit_edge.i24, label %88

._crit_edge.i24:                                  ; preds = %.lr.ph
  %.phi.trans.insert.i25 = getelementptr inbounds nuw i8, ptr %83, i64 128
  %.pre.i26 = load double, ptr %.phi.trans.insert.i25, align 8, !tbaa !123
  br label %_ZNK5Ipopt6Vector4AmaxEv.exit

88:                                               ; preds = %.lr.ph
  %89 = load ptr, ptr %83, align 8, !tbaa !16
  %90 = getelementptr inbounds nuw i8, ptr %89, i64 64
  %91 = load ptr, ptr %90, align 8
  %92 = tail call noundef double %91(ptr noundef nonnull align 8 dereferenceable(205) %83)
  %93 = getelementptr inbounds nuw i8, ptr %83, i64 128
  store double %92, ptr %93, align 8, !tbaa !123
  %94 = load i32, ptr %86, align 8, !tbaa !108
  store i32 %94, ptr %84, align 8, !tbaa !122
  %.pre = load ptr, ptr %4, align 8, !tbaa !9
  %.pre49 = load ptr, ptr %2, align 8, !tbaa !3
  br label %_ZNK5Ipopt6Vector4AmaxEv.exit

_ZNK5Ipopt6Vector4AmaxEv.exit:                    ; preds = %._crit_edge.i24, %88
  %95 = phi ptr [ %80, %._crit_edge.i24 ], [ %.pre49, %88 ]
  %96 = phi ptr [ %81, %._crit_edge.i24 ], [ %.pre, %88 ]
  %97 = phi double [ %.pre.i26, %._crit_edge.i24 ], [ %92, %88 ]
  %98 = fcmp olt double %.330, %97
  %.sroa.speculated.i = select i1 %98, double %97, double %.330
  %indvars.iv.next = add nuw nsw i64 %indvars.iv, 1
  %99 = ptrtoint ptr %96 to i64
  %100 = ptrtoint ptr %95 to i64
  %101 = sub i64 %99, %100
  %sext = shl i64 %101, 29
  %102 = ashr i64 %sext, 32
  %103 = icmp slt i64 %indvars.iv.next, %102
  br i1 %103, label %.lr.ph, label %.loopexit, !llvm.loop !923

.loopexit:                                        ; preds = %_ZNK5Ipopt6Vector4AmaxEv.exit, %_ZNK5Ipopt6Vector4AsumEv.exit, %.preheader28, %.preheader, %3, %._crit_edge
  %.1 = phi double [ 0.000000e+00, %3 ], [ %55, %._crit_edge ], [ 0.000000e+00, %.preheader ], [ 0.000000e+00, %.preheader28 ], [ %49, %_ZNK5Ipopt6Vector4AsumEv.exit ], [ %.sroa.speculated.i, %_ZNK5Ipopt6Vector4AmaxEv.exit ]
  ret double %.1
}